; Function Attrs: nounwind uwtable
define internal range(i32 -1, 2) i32 @_sort_cluster_grouping_dec(ptr noundef readonly captures(none) %0, ptr noundef readonly captures(none) %1) #0 {
  %3 = load ptr, ptr %0, align 8
  %4 = getelementptr inbounds nuw i8, ptr %3, i64 8
  %5 = load ptr, ptr %4, align 8
  %.not = icmp eq ptr %5, null
  br i1 %.not, label %14, label %6

6:                                                ; preds = %2
  %7 = load ptr, ptr %1, align 8
  %8 = getelementptr inbounds nuw i8, ptr %7, i64 8
  %9 = load ptr, ptr %8, align 8
  %.not11 = icmp eq ptr %9, null
  br i1 %.not11, label %14, label %10

10:                                               ; preds = %6
  %11 = tail call i32 @xstrcmp(ptr noundef nonnull %5, ptr noundef nonnull %9) #12
  %12 = icmp sgt i32 %11, 0
  br i1 %12, label %14, label %13

13:                                               ; preds = %10
  %.not12 = icmp ne i32 %11, 0
  %. = sext i1 %.not12 to i32
  br label %14

14:                                               ; preds = %13, %10, %2, %6
  %.0 = phi i32 [ 0, %6 ], [ 0, %2 ], [ 1, %10 ], [ %., %13 ]
  ret i32 %.0
}